; ModuleID = '32/2102.c'
source_filename = "32/2102.c"
target datalayout = "e-m:e-p270:32:32-p271:32:32-p272:64:64-i64:64-f80:128-n8:16:32:64-S128"
target triple = "x86_64-pc-linux-gnu"

@.str = private unnamed_addr constant [3 x i8] c"%d\00", align 1
@.str.1 = private unnamed_addr constant [3 x i8] c"%s\00", align 1
@.str.2 = private unnamed_addr constant [4 x i8] c"%s\0A\00", align 1

; Function Attrs: noinline nounwind uwtable
define dso_local void @main() #0 {
  %1 = alloca [100 x i8], align 16
  %2 = alloca [100 x i8], align 16
  %3 = alloca i32, align 4
  %4 = alloca i32, align 4
  %5 = alloca i32, align 4
  %6 = alloca i32, align 4
  %7 = alloca i32, align 4
  %8 = alloca i32, align 4
  %9 = alloca i32, align 4
  %10 = bitcast [100 x i8]* %1 to i8*
  call void @llvm.memset.p0i8.i64(i8* align 16 %10, i8 0, i64 100, i1 false)
  %11 = bitcast [100 x i8]* %2 to i8*
  call void @llvm.memset.p0i8.i64(i8* align 16 %11, i8 0, i64 100, i1 false)
  %12 = call i32 (i8*, ...) @__isoc99_scanf(i8* getelementptr inbounds ([3 x i8], [3 x i8]* @.str, i64 0, i64 0), i32* %3)
  store i32 1, i32* %5, align 4
  br label %13

13:                                               ; preds = %185, %0
  %14 = load i32, i32* %5, align 4
  %15 = load i32, i32* %3, align 4
  %16 = icmp sle i32 %14, %15
  br i1 %16, label %17, label %188

17:                                               ; preds = %13
  store i32 0, i32* %8, align 4
  store i32 0, i32* %9, align 4
  %18 = getelementptr inbounds [100 x i8], [100 x i8]* %1, i64 0, i64 0
  %19 = call i32 (i8*, ...) @__isoc99_scanf(i8* getelementptr inbounds ([3 x i8], [3 x i8]* @.str.1, i64 0, i64 0), i8* %18)
  %20 = getelementptr inbounds [100 x i8], [100 x i8]* %2, i64 0, i64 0
  %21 = call i32 (i8*, ...) @__isoc99_scanf(i8* getelementptr inbounds ([3 x i8], [3 x i8]* @.str.1, i64 0, i64 0), i8* %20)
  br label %22

22:                                               ; preds = %39, %17
  %23 = load i32, i32* %8, align 4
  %24 = sext i32 %23 to i64
  %25 = getelementptr inbounds [100 x i8], [100 x i8]* %1, i64 0, i64 %24
  %26 = load i8, i8* %25, align 1
  %27 = sext i8 %26 to i32
  %28 = icmp sle i32 %27, 58
  br i1 %28, label %29, label %36

29:                                               ; preds = %22
  %30 = load i32, i32* %8, align 4
  %31 = sext i32 %30 to i64
  %32 = getelementptr inbounds [100 x i8], [100 x i8]* %1, i64 0, i64 %31
  %33 = load i8, i8* %32, align 1
  %34 = sext i8 %33 to i32
  %35 = icmp sge i32 %34, 48
  br label %36

36:                                               ; preds = %29, %22
  %37 = phi i1 [ false, %22 ], [ %35, %29 ]
  br i1 %37, label %38, label %42

38:                                               ; preds = %36
  br label %39

39:                                               ; preds = %38
  %40 = load i32, i32* %8, align 4
  %41 = add nsw i32 %40, 1
  store i32 %41, i32* %8, align 4
  br label %22

42:                                               ; preds = %36
  br label %43

43:                                               ; preds = %60, %42
  %44 = load i32, i32* %9, align 4
  %45 = sext i32 %44 to i64
  %46 = getelementptr inbounds [100 x i8], [100 x i8]* %2, i64 0, i64 %45
  %47 = load i8, i8* %46, align 1
  %48 = sext i8 %47 to i32
  %49 = icmp sle i32 %48, 58
  br i1 %49, label %50, label %57

50:                                               ; preds = %43
  %51 = load i32, i32* %9, align 4
  %52 = sext i32 %51 to i64
  %53 = getelementptr inbounds [100 x i8], [100 x i8]* %2, i64 0, i64 %52
  %54 = load i8, i8* %53, align 1
  %55 = sext i8 %54 to i32
  %56 = icmp sge i32 %55, 48
  br label %57

57:                                               ; preds = %50, %43
  %58 = phi i1 [ false, %43 ], [ %56, %50 ]
  br i1 %58, label %59, label %63

59:                                               ; preds = %57
  br label %60

60:                                               ; preds = %59
  %61 = load i32, i32* %9, align 4
  %62 = add nsw i32 %61, 1
  store i32 %62, i32* %9, align 4
  br label %43

63:                                               ; preds = %57
  store i32 0, i32* %6, align 4
  %64 = load i32, i32* %8, align 4
  %65 = load i32, i32* %9, align 4
  %66 = sub nsw i32 %64, %65
  store i32 %66, i32* %4, align 4
  br label %67

67:                                               ; preds = %179, %63
  %68 = load i32, i32* %4, align 4
  %69 = load i32, i32* %8, align 4
  %70 = icmp slt i32 %68, %69
  br i1 %70, label %71, label %182

71:                                               ; preds = %67
  %72 = load i32, i32* %4, align 4
  %73 = sext i32 %72 to i64
  %74 = getelementptr inbounds [100 x i8], [100 x i8]* %1, i64 0, i64 %73
  %75 = load i8, i8* %74, align 1
  %76 = sext i8 %75 to i32
  %77 = load i32, i32* %6, align 4
  %78 = sext i32 %77 to i64
  %79 = getelementptr inbounds [100 x i8], [100 x i8]* %2, i64 0, i64 %78
  %80 = load i8, i8* %79, align 1
  %81 = sext i8 %80 to i32
  %82 = sub nsw i32 %76, %81
  %83 = icmp sge i32 %82, 0
  br i1 %83, label %84, label %101

84:                                               ; preds = %71
  %85 = load i32, i32* %4, align 4
  %86 = sext i32 %85 to i64
  %87 = getelementptr inbounds [100 x i8], [100 x i8]* %1, i64 0, i64 %86
  %88 = load i8, i8* %87, align 1
  %89 = sext i8 %88 to i32
  %90 = load i32, i32* %6, align 4
  %91 = sext i32 %90 to i64
  %92 = getelementptr inbounds [100 x i8], [100 x i8]* %2, i64 0, i64 %91
  %93 = load i8, i8* %92, align 1
  %94 = sext i8 %93 to i32
  %95 = sub nsw i32 %89, %94
  %96 = add nsw i32 %95, 48
  %97 = trunc i32 %96 to i8
  %98 = load i32, i32* %4, align 4
  %99 = sext i32 %98 to i64
  %100 = getelementptr inbounds [100 x i8], [100 x i8]* %1, i64 0, i64 %99
  store i8 %97, i8* %100, align 1
  br label %176

101:                                              ; preds = %71
  %102 = load i32, i32* %4, align 4
  %103 = sext i32 %102 to i64
  %104 = getelementptr inbounds [100 x i8], [100 x i8]* %1, i64 0, i64 %103
  %105 = load i8, i8* %104, align 1
  %106 = sext i8 %105 to i32
  %107 = load i32, i32* %6, align 4
  %108 = sext i32 %107 to i64
  %109 = getelementptr inbounds [100 x i8], [100 x i8]* %2, i64 0, i64 %108
  %110 = load i8, i8* %109, align 1
  %111 = sext i8 %110 to i32
  %112 = sub nsw i32 %106, %111
  %113 = icmp slt i32 %112, 0
  br i1 %113, label %114, label %175

114:                                              ; preds = %101
  %115 = load i32, i32* %4, align 4
  %116 = sub nsw i32 %115, 1
  store i32 %116, i32* %7, align 4
  br label %117

117:                                              ; preds = %135, %114
  %118 = load i32, i32* %7, align 4
  %119 = sext i32 %118 to i64
  %120 = getelementptr inbounds [100 x i8], [100 x i8]* %1, i64 0, i64 %119
  %121 = load i8, i8* %120, align 1
  %122 = sext i8 %121 to i32
  %123 = icmp eq i32 %122, 48
  br i1 %123, label %124, label %138

124:                                              ; preds = %117
  %125 = load i32, i32* %7, align 4
  %126 = sext i32 %125 to i64
  %127 = getelementptr inbounds [100 x i8], [100 x i8]* %1, i64 0, i64 %126
  %128 = load i8, i8* %127, align 1
  %129 = sext i8 %128 to i32
  %130 = add nsw i32 %129, 9
  %131 = trunc i32 %130 to i8
  %132 = load i32, i32* %7, align 4
  %133 = sext i32 %132 to i64
  %134 = getelementptr inbounds [100 x i8], [100 x i8]* %1, i64 0, i64 %133
  store i8 %131, i8* %134, align 1
  br label %135

135:                                              ; preds = %124
  %136 = load i32, i32* %7, align 4
  %137 = add nsw i32 %136, -1
  store i32 %137, i32* %7, align 4
  br label %117

138:                                              ; preds = %117
  %139 = load i32, i32* %7, align 4
  %140 = sext i32 %139 to i64
  %141 = getelementptr inbounds [100 x i8], [100 x i8]* %1, i64 0, i64 %140
  %142 = load i8, i8* %141, align 1
  %143 = sext i8 %142 to i32
  %144 = icmp ne i32 %143, 48
  br i1 %144, label %145, label %156

145:                                              ; preds = %138
  %146 = load i32, i32* %7, align 4
  %147 = sext i32 %146 to i64
  %148 = getelementptr inbounds [100 x i8], [100 x i8]* %1, i64 0, i64 %147
  %149 = load i8, i8* %148, align 1
  %150 = sext i8 %149 to i32
  %151 = sub nsw i32 %150, 1
  %152 = trunc i32 %151 to i8
  %153 = load i32, i32* %7, align 4
  %154 = sext i32 %153 to i64
  %155 = getelementptr inbounds [100 x i8], [100 x i8]* %1, i64 0, i64 %154
  store i8 %152, i8* %155, align 1
  br label %157

156:                                              ; preds = %138
  br label %157

157:                                              ; preds = %156, %145
  %158 = load i32, i32* %4, align 4
  %159 = sext i32 %158 to i64
  %160 = getelementptr inbounds [100 x i8], [100 x i8]* %1, i64 0, i64 %159
  %161 = load i8, i8* %160, align 1
  %162 = sext i8 %161 to i32
  %163 = load i32, i32* %6, align 4
  %164 = sext i32 %163 to i64
  %165 = getelementptr inbounds [100 x i8], [100 x i8]* %2, i64 0, i64 %164
  %166 = load i8, i8* %165, align 1
  %167 = sext i8 %166 to i32
  %168 = sub nsw i32 %162, %167
  %169 = add nsw i32 %168, 48
  %170 = add nsw i32 %169, 10
  %171 = trunc i32 %170 to i8
  %172 = load i32, i32* %4, align 4
  %173 = sext i32 %172 to i64
  %174 = getelementptr inbounds [100 x i8], [100 x i8]* %1, i64 0, i64 %173
  store i8 %171, i8* %174, align 1
  br label %175

175:                                              ; preds = %157, %101
  br label %176

176:                                              ; preds = %175, %84
  %177 = load i32, i32* %6, align 4
  %178 = add nsw i32 %177, 1
  store i32 %178, i32* %6, align 4
  br label %179

179:                                              ; preds = %176
  %180 = load i32, i32* %4, align 4
  %181 = add nsw i32 %180, 1
  store i32 %181, i32* %4, align 4
  br label %67

182:                                              ; preds = %67
  %183 = getelementptr inbounds [100 x i8], [100 x i8]* %1, i64 0, i64 0
  %184 = call i32 (i8*, ...) @printf(i8* getelementptr inbounds ([4 x i8], [4 x i8]* @.str.2, i64 0, i64 0), i8* %183)
  br label %185

185:                                              ; preds = %182
  %186 = load i32, i32* %5, align 4
  %187 = add nsw i32 %186, 1
  store i32 %187, i32* %5, align 4
  br label %13

188:                                              ; preds = %13
  ret void
}

; Function Attrs: argmemonly nounwind willreturn
declare void @llvm.memset.p0i8.i64(i8* nocapture writeonly, i8, i64, i1 immarg) #1

declare dso_local i32 @__isoc99_scanf(i8*, ...) #2

declare dso_local i32 @printf(i8*, ...) #2


!llvm.module.flags = !{!0}
!llvm.ident = !{!1}

!0 = !{i32 1, !"wchar_size", i32 4}
!1 = !{!"clang version 10.0.0-4ubuntu1 "}
